target datalayout = "e-m:e-p270:32:32-p271:32:32-p272:64:64-i64:64-i128:128-f80:128-n8:16:32:64-S128"
target triple = "x86_64-pc-linux-gnu"

%struct.lua_State = type { ptr, i8, i8, i8, i8, i16, %union.StkIdRel, ptr, ptr, %union.StkIdRel, %union.StkIdRel, ptr, %union.StkIdRel, ptr, ptr, ptr, %struct.CallInfo, ptr, i64, i32, i32, i32, i32, i32, %struct.anon.2 }
%union.StkIdRel = type { ptr }
%struct.CallInfo = type { %union.StkIdRel, %union.StkIdRel, ptr, ptr, %union.anon, %union.anon.1, i32 }
%union.anon = type { %struct.anon.0 }
%struct.anon.0 = type { ptr, i64, i64 }
%union.anon.1 = type { i32 }
%struct.anon.2 = type { i32, i32 }
%struct.global_State = type { ptr, ptr, i64, i64, i64, i64, %struct.stringtable, %struct.TValue, %struct.TValue, i32, [6 x i8], i8, i8, i8, i8, i8, i8, ptr, ptr, ptr, ptr, ptr, ptr, ptr, ptr, ptr, ptr, ptr, ptr, ptr, ptr, ptr, ptr, ptr, ptr, ptr, ptr, ptr, [25 x ptr], [9 x ptr], [53 x [2 x ptr]], ptr, ptr }
%struct.stringtable = type { ptr, i32, i32 }
%struct.TValue = type { %union.Value, i8 }
%union.Value = type { ptr }
%struct.GCObject = type { ptr, i8, i8 }
%union.StackValue = type { %struct.TValue }

@.str = private unnamed_addr constant [5 x i8] c"__gc\00", align 1

; Function Attrs: nounwind uwtable
define internal ptr @udata2finalize(ptr noundef %0) #0 {
  %2 = alloca ptr, align 8
  %3 = alloca ptr, align 8
  store ptr %0, ptr %2, align 8, !tbaa !22
  call void @llvm.lifetime.start.p0(i64 8, ptr %3) #6
  %4 = load ptr, ptr %2, align 8, !tbaa !22
  %5 = getelementptr inbounds nuw %struct.global_State, ptr %4, i32 0, i32 25
  %6 = load ptr, ptr %5, align 8, !tbaa !74
  store ptr %6, ptr %3, align 8, !tbaa !9
  %7 = load ptr, ptr %3, align 8, !tbaa !9
  %8 = getelementptr inbounds nuw %struct.GCObject, ptr %7, i32 0, i32 0
  %9 = load ptr, ptr %8, align 8, !tbaa !53
  %10 = load ptr, ptr %2, align 8, !tbaa !22
  %11 = getelementptr inbounds nuw %struct.global_State, ptr %10, i32 0, i32 25
  store ptr %9, ptr %11, align 8, !tbaa !74
  %12 = load ptr, ptr %2, align 8, !tbaa !22
  %13 = getelementptr inbounds nuw %struct.global_State, ptr %12, i32 0, i32 17
  %14 = load ptr, ptr %13, align 8, !tbaa !54
  %15 = load ptr, ptr %3, align 8, !tbaa !9
  %16 = getelementptr inbounds nuw %struct.GCObject, ptr %15, i32 0, i32 0
  store ptr %14, ptr %16, align 8, !tbaa !53
  %17 = load ptr, ptr %3, align 8, !tbaa !9
  %18 = load ptr, ptr %2, align 8, !tbaa !22
  %19 = getelementptr inbounds nuw %struct.global_State, ptr %18, i32 0, i32 17
  store ptr %17, ptr %19, align 8, !tbaa !54
  %20 = load ptr, ptr %3, align 8, !tbaa !9
  %21 = getelementptr inbounds nuw %struct.GCObject, ptr %20, i32 0, i32 2
  %22 = load i8, ptr %21, align 1, !tbaa !30
  %23 = zext i8 %22 to i32
  %24 = and i32 %23, 191
  %25 = trunc i32 %24 to i8
  store i8 %25, ptr %21, align 1, !tbaa !30
  %26 = load ptr, ptr %2, align 8, !tbaa !22
  %27 = getelementptr inbounds nuw %struct.global_State, ptr %26, i32 0, i32 12
  %28 = load i8, ptr %27, align 1, !tbaa !23
  %29 = zext i8 %28 to i32
  %30 = icmp sle i32 3, %29
  br i1 %30, label %31, label %54

31:                                               ; preds = %1
  %32 = load ptr, ptr %2, align 8, !tbaa !22
  %33 = getelementptr inbounds nuw %struct.global_State, ptr %32, i32 0, i32 12
  %34 = load i8, ptr %33, align 1, !tbaa !23
  %35 = zext i8 %34 to i32
  %36 = icmp sle i32 %35, 6
  br i1 %36, label %37, label %54

37:                                               ; preds = %31
  %38 = load ptr, ptr %3, align 8, !tbaa !9
  %39 = getelementptr inbounds nuw %struct.GCObject, ptr %38, i32 0, i32 2
  %40 = load i8, ptr %39, align 1, !tbaa !30
  %41 = zext i8 %40 to i32
  %42 = and i32 %41, -57
  %43 = load ptr, ptr %2, align 8, !tbaa !22
  %44 = getelementptr inbounds nuw %struct.global_State, ptr %43, i32 0, i32 11
  %45 = load i8, ptr %44, align 2, !tbaa !33
  %46 = zext i8 %45 to i32
  %47 = and i32 %46, 24
  %48 = trunc i32 %47 to i8
  %49 = zext i8 %48 to i32
  %50 = or i32 %42, %49
  %51 = trunc i32 %50 to i8
  %52 = load ptr, ptr %3, align 8, !tbaa !9
  %53 = getelementptr inbounds nuw %struct.GCObject, ptr %52, i32 0, i32 2
  store i8 %51, ptr %53, align 1, !tbaa !30
  br label %66

54:                                               ; preds = %31, %1
  %55 = load ptr, ptr %3, align 8, !tbaa !9
  %56 = getelementptr inbounds nuw %struct.GCObject, ptr %55, i32 0, i32 2
  %57 = load i8, ptr %56, align 1, !tbaa !30
  %58 = zext i8 %57 to i32
  %59 = and i32 %58, 7
  %60 = icmp eq i32 %59, 3
  br i1 %60, label %61, label %65

61:                                               ; preds = %54
  %62 = load ptr, ptr %3, align 8, !tbaa !9
  %63 = load ptr, ptr %2, align 8, !tbaa !22
  %64 = getelementptr inbounds nuw %struct.global_State, ptr %63, i32 0, i32 30
  store ptr %62, ptr %64, align 8, !tbaa !78
  br label %65

65:                                               ; preds = %61, %54
  br label %66

66:                                               ; preds = %65, %37
  %67 = load ptr, ptr %3, align 8, !tbaa !9
  call void @llvm.lifetime.end.p0(i64 8, ptr %3) #6
  ret ptr %67
}

; Function Attrs: nounwind uwtable
define internal void @GCTM(ptr noundef %0) #0 {
  %2 = alloca ptr, align 8
  %3 = alloca ptr, align 8
  %4 = alloca ptr, align 8
  %5 = alloca %struct.TValue, align 8
  %6 = alloca ptr, align 8
  %7 = alloca ptr, align 8
  %8 = alloca i32, align 4
  %9 = alloca i8, align 1
  %10 = alloca i8, align 1
  %11 = alloca ptr, align 8
  %12 = alloca ptr, align 8
  %13 = alloca ptr, align 8
  %14 = alloca ptr, align 8
  store ptr %0, ptr %2, align 8, !tbaa !4
  call void @llvm.lifetime.start.p0(i64 8, ptr %3) #6
  %15 = load ptr, ptr %2, align 8, !tbaa !4
  %16 = getelementptr inbounds nuw %struct.lua_State, ptr %15, i32 0, i32 7
  %17 = load ptr, ptr %16, align 8, !tbaa !11
  store ptr %17, ptr %3, align 8, !tbaa !22
  call void @llvm.lifetime.start.p0(i64 8, ptr %4) #6
  call void @llvm.lifetime.start.p0(i64 16, ptr %5) #6
  call void @llvm.lifetime.start.p0(i64 8, ptr %6) #6
  store ptr %5, ptr %6, align 8, !tbaa !111
  call void @llvm.lifetime.start.p0(i64 8, ptr %7) #6
  %18 = load ptr, ptr %3, align 8, !tbaa !22
  %19 = call ptr @udata2finalize(ptr noundef %18)
  store ptr %19, ptr %7, align 8, !tbaa !9
  %20 = load ptr, ptr %7, align 8, !tbaa !9
  %21 = load ptr, ptr %6, align 8, !tbaa !111
  %22 = getelementptr inbounds nuw %struct.TValue, ptr %21, i32 0, i32 0
  store ptr %20, ptr %22, align 8, !tbaa !37
  %23 = load ptr, ptr %7, align 8, !tbaa !9
  %24 = getelementptr inbounds nuw %struct.GCObject, ptr %23, i32 0, i32 1
  %25 = load i8, ptr %24, align 8, !tbaa !35
  %26 = zext i8 %25 to i32
  %27 = or i32 %26, 64
  %28 = trunc i32 %27 to i8
  %29 = load ptr, ptr %6, align 8, !tbaa !111
  %30 = getelementptr inbounds nuw %struct.TValue, ptr %29, i32 0, i32 1
  store i8 %28, ptr %30, align 8, !tbaa !40
  call void @llvm.lifetime.end.p0(i64 8, ptr %7) #6
  call void @llvm.lifetime.end.p0(i64 8, ptr %6) #6
  %31 = load ptr, ptr %2, align 8, !tbaa !4
  %32 = call ptr @luaT_gettmbyobj(ptr noundef %31, ptr noundef %5, i32 noundef 2)
  store ptr %32, ptr %4, align 8, !tbaa !111
  %33 = load ptr, ptr %4, align 8, !tbaa !111
  %34 = getelementptr inbounds nuw %struct.TValue, ptr %33, i32 0, i32 1
  %35 = load i8, ptr %34, align 8, !tbaa !40
  %36 = zext i8 %35 to i32
  %37 = and i32 %36, 15
  %38 = icmp eq i32 %37, 0
  br i1 %38, label %126, label %39

39:                                               ; preds = %1
  call void @llvm.lifetime.start.p0(i64 4, ptr %8) #6
  call void @llvm.lifetime.start.p0(i64 1, ptr %9) #6
  %40 = load ptr, ptr %2, align 8, !tbaa !4
  %41 = getelementptr inbounds nuw %struct.lua_State, ptr %40, i32 0, i32 4
  %42 = load i8, ptr %41, align 1, !tbaa !141
  store i8 %42, ptr %9, align 1, !tbaa !37
  call void @llvm.lifetime.start.p0(i64 1, ptr %10) #6
  %43 = load ptr, ptr %3, align 8, !tbaa !22
  %44 = getelementptr inbounds nuw %struct.global_State, ptr %43, i32 0, i32 15
  %45 = load i8, ptr %44, align 2, !tbaa !62
  store i8 %45, ptr %10, align 1, !tbaa !37
  %46 = load ptr, ptr %3, align 8, !tbaa !22
  %47 = getelementptr inbounds nuw %struct.global_State, ptr %46, i32 0, i32 15
  %48 = load i8, ptr %47, align 2, !tbaa !62
  %49 = zext i8 %48 to i32
  %50 = or i32 %49, 2
  %51 = trunc i32 %50 to i8
  store i8 %51, ptr %47, align 2, !tbaa !62
  %52 = load ptr, ptr %2, align 8, !tbaa !4
  %53 = getelementptr inbounds nuw %struct.lua_State, ptr %52, i32 0, i32 4
  store i8 0, ptr %53, align 1, !tbaa !141
  call void @llvm.lifetime.start.p0(i64 8, ptr %11) #6
  %54 = load ptr, ptr %2, align 8, !tbaa !4
  %55 = getelementptr inbounds nuw %struct.lua_State, ptr %54, i32 0, i32 6
  %56 = load ptr, ptr %55, align 8, !tbaa !37
  %57 = getelementptr inbounds nuw %union.StackValue, ptr %56, i32 1
  store ptr %57, ptr %55, align 8, !tbaa !37
  store ptr %56, ptr %11, align 8, !tbaa !111
  call void @llvm.lifetime.start.p0(i64 8, ptr %12) #6
  %58 = load ptr, ptr %4, align 8, !tbaa !111
  store ptr %58, ptr %12, align 8, !tbaa !111
  %59 = load ptr, ptr %11, align 8, !tbaa !111
  %60 = getelementptr inbounds nuw %struct.TValue, ptr %59, i32 0, i32 0
  %61 = load ptr, ptr %12, align 8, !tbaa !111
  %62 = getelementptr inbounds nuw %struct.TValue, ptr %61, i32 0, i32 0
  call void @llvm.memcpy.p0.p0.i64(ptr align 8 %60, ptr align 8 %62, i64 8, i1 false), !tbaa.struct !142
  %63 = load ptr, ptr %12, align 8, !tbaa !111
  %64 = getelementptr inbounds nuw %struct.TValue, ptr %63, i32 0, i32 1
  %65 = load i8, ptr %64, align 8, !tbaa !40
  %66 = load ptr, ptr %11, align 8, !tbaa !111
  %67 = getelementptr inbounds nuw %struct.TValue, ptr %66, i32 0, i32 1
  store i8 %65, ptr %67, align 8, !tbaa !40
  call void @llvm.lifetime.end.p0(i64 8, ptr %12) #6
  call void @llvm.lifetime.end.p0(i64 8, ptr %11) #6
  call void @llvm.lifetime.start.p0(i64 8, ptr %13) #6
  %68 = load ptr, ptr %2, align 8, !tbaa !4
  %69 = getelementptr inbounds nuw %struct.lua_State, ptr %68, i32 0, i32 6
  %70 = load ptr, ptr %69, align 8, !tbaa !37
  %71 = getelementptr inbounds nuw %union.StackValue, ptr %70, i32 1
  store ptr %71, ptr %69, align 8, !tbaa !37
  store ptr %70, ptr %13, align 8, !tbaa !111
  call void @llvm.lifetime.start.p0(i64 8, ptr %14) #6
  store ptr %5, ptr %14, align 8, !tbaa !111
  %72 = load ptr, ptr %13, align 8, !tbaa !111
  %73 = getelementptr inbounds nuw %struct.TValue, ptr %72, i32 0, i32 0
  %74 = load ptr, ptr %14, align 8, !tbaa !111
  %75 = getelementptr inbounds nuw %struct.TValue, ptr %74, i32 0, i32 0
  call void @llvm.memcpy.p0.p0.i64(ptr align 8 %73, ptr align 8 %75, i64 8, i1 false), !tbaa.struct !142
  %76 = load ptr, ptr %14, align 8, !tbaa !111
  %77 = getelementptr inbounds nuw %struct.TValue, ptr %76, i32 0, i32 1
  %78 = load i8, ptr %77, align 8, !tbaa !40
  %79 = load ptr, ptr %13, align 8, !tbaa !111
  %80 = getelementptr inbounds nuw %struct.TValue, ptr %79, i32 0, i32 1
  store i8 %78, ptr %80, align 8, !tbaa !40
  call void @llvm.lifetime.end.p0(i64 8, ptr %14) #6
  call void @llvm.lifetime.end.p0(i64 8, ptr %13) #6
  %81 = load ptr, ptr %2, align 8, !tbaa !4
  %82 = getelementptr inbounds nuw %struct.lua_State, ptr %81, i32 0, i32 8
  %83 = load ptr, ptr %82, align 8, !tbaa !143
  %84 = getelementptr inbounds nuw %struct.CallInfo, ptr %83, i32 0, i32 6
  %85 = load i32, ptr %84, align 4, !tbaa !144
  %86 = or i32 %85, 16777216
  store i32 %86, ptr %84, align 4, !tbaa !144
  %87 = load ptr, ptr %2, align 8, !tbaa !4
  %88 = load ptr, ptr %2, align 8, !tbaa !4
  %89 = getelementptr inbounds nuw %struct.lua_State, ptr %88, i32 0, i32 6
  %90 = load ptr, ptr %89, align 8, !tbaa !37
  %91 = getelementptr inbounds %union.StackValue, ptr %90, i64 -2
  %92 = load ptr, ptr %2, align 8, !tbaa !4
  %93 = getelementptr inbounds nuw %struct.lua_State, ptr %92, i32 0, i32 10
  %94 = load ptr, ptr %93, align 8, !tbaa !37
  %95 = ptrtoint ptr %91 to i64
  %96 = ptrtoint ptr %94 to i64
  %97 = sub i64 %95, %96
  %98 = call i32 @luaD_pcall(ptr noundef %87, ptr noundef @dothecall, ptr noundef null, i64 noundef %97, i64 noundef 0)
  store i32 %98, ptr %8, align 4, !tbaa !65
  %99 = load ptr, ptr %2, align 8, !tbaa !4
  %100 = getelementptr inbounds nuw %struct.lua_State, ptr %99, i32 0, i32 8
  %101 = load ptr, ptr %100, align 8, !tbaa !143
  %102 = getelementptr inbounds nuw %struct.CallInfo, ptr %101, i32 0, i32 6
  %103 = load i32, ptr %102, align 4, !tbaa !144
  %104 = and i32 %103, -16777217
  store i32 %104, ptr %102, align 4, !tbaa !144
  %105 = load i8, ptr %9, align 1, !tbaa !37
  %106 = load ptr, ptr %2, align 8, !tbaa !4
  %107 = getelementptr inbounds nuw %struct.lua_State, ptr %106, i32 0, i32 4
  store i8 %105, ptr %107, align 1, !tbaa !141
  %108 = load i8, ptr %10, align 1, !tbaa !37
  %109 = load ptr, ptr %3, align 8, !tbaa !22
  %110 = getelementptr inbounds nuw %struct.global_State, ptr %109, i32 0, i32 15
  store i8 %108, ptr %110, align 2, !tbaa !62
  %111 = load i32, ptr %8, align 4, !tbaa !65
  %112 = icmp ne i32 %111, 0
  %113 = zext i1 %112 to i32
  %114 = icmp ne i32 %113, 0
  %115 = zext i1 %114 to i32
  %116 = sext i32 %115 to i64
  %117 = call i64 @llvm.expect.i64(i64 %116, i64 0)
  %118 = icmp ne i64 %117, 0
  br i1 %118, label %119, label %125

119:                                              ; preds = %39
  %120 = load ptr, ptr %2, align 8, !tbaa !4
  call void @luaE_warnerror(ptr noundef %120, ptr noundef @.str)
  %121 = load ptr, ptr %2, align 8, !tbaa !4
  %122 = getelementptr inbounds nuw %struct.lua_State, ptr %121, i32 0, i32 6
  %123 = load ptr, ptr %122, align 8, !tbaa !37
  %124 = getelementptr inbounds %union.StackValue, ptr %123, i32 -1
  store ptr %124, ptr %122, align 8, !tbaa !37
  br label %125

125:                                              ; preds = %119, %39
  call void @llvm.lifetime.end.p0(i64 1, ptr %10) #6
  call void @llvm.lifetime.end.p0(i64 1, ptr %9) #6
  call void @llvm.lifetime.end.p0(i64 4, ptr %8) #6
  br label %126

126:                                              ; preds = %125, %1
  call void @llvm.lifetime.end.p0(i64 16, ptr %5) #6
  call void @llvm.lifetime.end.p0(i64 8, ptr %4) #6
  call void @llvm.lifetime.end.p0(i64 8, ptr %3) #6
  ret void
}