; Function Attrs: nounwind uwtable
define internal fastcc void @GCTM(ptr noundef %0) unnamed_addr #0 {
  %2 = alloca %struct.TValue, align 8
  %3 = getelementptr inbounds nuw i8, ptr %0, i64 24
  %4 = load ptr, ptr %3, align 8, !tbaa !4
  call void @llvm.lifetime.start.p0(i64 16, ptr nonnull %2) #8
  %5 = getelementptr inbounds nuw i8, ptr %4, i64 176
  %6 = load ptr, ptr %5, align 8, !tbaa !58
  %7 = load ptr, ptr %6, align 8, !tbaa !47
  store ptr %7, ptr %5, align 8, !tbaa !58
  %8 = getelementptr inbounds nuw i8, ptr %4, i64 112
  %9 = load ptr, ptr %8, align 8, !tbaa !48
  store ptr %9, ptr %6, align 8, !tbaa !47
  store ptr %6, ptr %8, align 8, !tbaa !48
  %10 = getelementptr inbounds nuw i8, ptr %6, i64 9
  %11 = load i8, ptr %10, align 1, !tbaa !27
  %12 = and i8 %11, -65
  store i8 %12, ptr %10, align 1, !tbaa !27
  %13 = getelementptr inbounds nuw i8, ptr %4, i64 107
  %14 = load i8, ptr %13, align 1, !tbaa !20
  %15 = add i8 %14, -3
  %or.cond.i = icmp ult i8 %15, 4
  br i1 %or.cond.i, label %16, label %22

16:                                               ; preds = %1
  %17 = and i8 %11, -121
  %18 = getelementptr inbounds nuw i8, ptr %4, i64 106
  %19 = load i8, ptr %18, align 2, !tbaa !30
  %20 = and i8 %19, 24
  %21 = or disjoint i8 %20, %17
  store i8 %21, ptr %10, align 1, !tbaa !27
  br label %udata2finalize.exit

22:                                               ; preds = %1
  %23 = and i8 %11, 7
  %24 = icmp eq i8 %23, 3
  br i1 %24, label %25, label %udata2finalize.exit

25:                                               ; preds = %22
  %26 = getelementptr inbounds nuw i8, ptr %4, i64 216
  store ptr %6, ptr %26, align 8, !tbaa !70
  br label %udata2finalize.exit

udata2finalize.exit:                              ; preds = %16, %22, %25
  store ptr %6, ptr %2, align 8, !tbaa !33
  %27 = getelementptr inbounds nuw i8, ptr %6, i64 8
  %28 = load i8, ptr %27, align 8, !tbaa !32
  %29 = or i8 %28, 64
  %30 = getelementptr inbounds nuw i8, ptr %2, i64 8
  store i8 %29, ptr %30, align 8, !tbaa !36
  %31 = call ptr @luaT_gettmbyobj(ptr noundef nonnull %0, ptr noundef nonnull %2, i32 noundef 2) #8
  %32 = getelementptr inbounds nuw i8, ptr %31, i64 8
  %33 = load i8, ptr %32, align 8, !tbaa !36
  %34 = and i8 %33, 15
  %35 = icmp eq i8 %34, 0
  br i1 %35, label %73, label %36

36:                                               ; preds = %udata2finalize.exit
  %37 = getelementptr inbounds nuw i8, ptr %0, i64 11
  %38 = load i8, ptr %37, align 1, !tbaa !126
  %39 = getelementptr inbounds nuw i8, ptr %4, i64 110
  %40 = load i8, ptr %39, align 2, !tbaa !52
  %41 = or i8 %40, 2
  store i8 %41, ptr %39, align 2, !tbaa !52
  store i8 0, ptr %37, align 1, !tbaa !126
  %42 = getelementptr inbounds nuw i8, ptr %0, i64 16
  %43 = load ptr, ptr %42, align 8, !tbaa !33
  %44 = getelementptr inbounds nuw i8, ptr %43, i64 16
  store ptr %44, ptr %42, align 8, !tbaa !33
  %45 = load i64, ptr %31, align 8, !tbaa !33
  store i64 %45, ptr %43, align 8, !tbaa !33
  %46 = load i8, ptr %32, align 8, !tbaa !36
  %47 = getelementptr inbounds nuw i8, ptr %43, i64 8
  store i8 %46, ptr %47, align 8, !tbaa !36
  %48 = load ptr, ptr %42, align 8, !tbaa !33
  %49 = getelementptr inbounds nuw i8, ptr %48, i64 16
  store ptr %49, ptr %42, align 8, !tbaa !33
  %50 = load i64, ptr %2, align 8, !tbaa !33
  store i64 %50, ptr %48, align 8, !tbaa !33
  %51 = load i8, ptr %30, align 8, !tbaa !36
  %52 = getelementptr inbounds nuw i8, ptr %48, i64 8
  store i8 %51, ptr %52, align 8, !tbaa !36
  %53 = getelementptr inbounds nuw i8, ptr %0, i64 32
  %54 = load ptr, ptr %53, align 8, !tbaa !127
  %55 = getelementptr inbounds nuw i8, ptr %54, i64 60
  %56 = load i32, ptr %55, align 4, !tbaa !128
  %57 = or i32 %56, 16777216
  store i32 %57, ptr %55, align 4, !tbaa !128
  %58 = load ptr, ptr %42, align 8, !tbaa !33
  %59 = getelementptr inbounds i8, ptr %58, i64 -32
  %60 = getelementptr inbounds nuw i8, ptr %0, i64 48
  %61 = load ptr, ptr %60, align 8, !tbaa !33
  %62 = ptrtoint ptr %59 to i64
  %63 = ptrtoint ptr %61 to i64
  %64 = sub i64 %62, %63
  %65 = call i32 @luaD_pcall(ptr noundef nonnull %0, ptr noundef nonnull @dothecall, ptr noundef null, i64 noundef %64, i64 noundef 0) #8
  %66 = load ptr, ptr %53, align 8, !tbaa !127
  %67 = getelementptr inbounds nuw i8, ptr %66, i64 60
  %68 = load i32, ptr %67, align 4, !tbaa !128
  %69 = and i32 %68, -16777217
  store i32 %69, ptr %67, align 4, !tbaa !128
  store i8 %38, ptr %37, align 1, !tbaa !126
  store i8 %40, ptr %39, align 2, !tbaa !52
  %.not = icmp eq i32 %65, 0
  br i1 %.not, label %73, label %70, !prof !129

70:                                               ; preds = %36
  call void @luaE_warnerror(ptr noundef nonnull %0, ptr noundef nonnull @.str) #8
  %71 = load ptr, ptr %42, align 8, !tbaa !33
  %72 = getelementptr inbounds i8, ptr %71, i64 -16
  store ptr %72, ptr %42, align 8, !tbaa !33
  br label %73

73:                                               ; preds = %36, %70, %udata2finalize.exit
  call void @llvm.lifetime.end.p0(i64 16, ptr nonnull %2) #8
  ret void
}